target datalayout = "e-m:e-p270:32:32-p271:32:32-p272:64:64-i64:64-i128:128-f80:128-n8:16:32:64-S128"
target triple = "x86_64-pc-linux-gnu"

%struct._php_basic_globals = type { ptr, %struct._zend_array, ptr, ptr, i8, ptr, [256 x i8], i64, %struct._zend_fcall_info, %struct._zend_fcall_info_cache, ptr, %struct._zval_struct, %struct._zval_struct, i64, i64, i64, i64, ptr, ptr, %struct._php_stream_statbuf, %struct._php_stream_statbuf, ptr, i32, %struct.anon.7, %struct.anon.8, %struct.url_adapt_state_ex_t, %struct._zend_array, %struct.url_adapt_state_ex_t, %struct._zend_array, ptr, i32, i64 }
%struct._zend_fcall_info = type { i64, %struct._zval_struct, ptr, ptr, ptr, i32, ptr }
%struct._zend_fcall_info_cache = type { ptr, ptr, ptr, ptr, ptr }
%struct._zval_struct = type { %union._zend_value, %union.anon.3, %union.anon.6 }
%union._zend_value = type { i64 }
%union.anon.3 = type { i32 }
%union.anon.6 = type { i32 }
%struct._php_stream_statbuf = type { %struct.stat }
%struct.stat = type { i64, i64, i64, i32, i32, i32, i32, i64, i64, i64, i64, %struct.timespec, %struct.timespec, %struct.timespec, [3 x i64] }
%struct.timespec = type { i64, i64 }
%struct.anon.7 = type { ptr, i32 }
%struct.anon.8 = type { ptr, i32 }
%struct.url_adapt_state_ex_t = type { %struct.smart_str, %struct.smart_str, %struct.smart_str, %struct.smart_str, %struct.smart_str, %struct.smart_str, %struct.smart_str, i32, ptr, i32, i32, %struct.smart_str, i32, i32, ptr }
%struct.smart_str = type { ptr, i64 }
%struct._zend_array = type { %struct._zend_refcounted_h, %union.anon.0, i32, %union.anon.1, i32, i32, i32, i32, i64, ptr }
%struct._zend_refcounted_h = type { i32, %union.anon }
%union.anon = type { i32 }
%union.anon.0 = type { i32 }
%union.anon.1 = type { ptr }

@basic_globals = global %struct._php_basic_globals zeroinitializer, align 8
@.str.3 = private unnamed_addr constant [4 x i8] c"php\00", align 1
@.str.7 = private unnamed_addr constant [5 x i8] c"http\00", align 1
@.str.8 = private unnamed_addr constant [4 x i8] c"ftp\00", align 1

; Function Attrs: nounwind uwtable
define internal void @basic_globals_dtor(ptr noundef %0) #0 {
  %2 = alloca ptr, align 8
  store ptr %0, ptr %2, align 8
  %3 = load ptr, ptr %2, align 8
  %4 = getelementptr inbounds %struct._php_basic_globals, ptr %3, i32 0, i32 25
  %5 = getelementptr inbounds %struct.url_adapt_state_ex_t, ptr %4, i32 0, i32 14
  %6 = load ptr, ptr %5, align 8
  %7 = icmp ne ptr %6, null
  br i1 %7, label %8, label %17

8:                                                ; preds = %1
  %9 = load ptr, ptr %2, align 8
  %10 = getelementptr inbounds %struct._php_basic_globals, ptr %9, i32 0, i32 25
  %11 = getelementptr inbounds %struct.url_adapt_state_ex_t, ptr %10, i32 0, i32 14
  %12 = load ptr, ptr %11, align 8
  call void @zend_hash_destroy(ptr noundef %12)
  %13 = load ptr, ptr %2, align 8
  %14 = getelementptr inbounds %struct._php_basic_globals, ptr %13, i32 0, i32 25
  %15 = getelementptr inbounds %struct.url_adapt_state_ex_t, ptr %14, i32 0, i32 14
  %16 = load ptr, ptr %15, align 8
  call void @free(ptr noundef %16) #12
  br label %17

17:                                               ; preds = %8, %1
  %18 = load ptr, ptr %2, align 8
  %19 = getelementptr inbounds %struct._php_basic_globals, ptr %18, i32 0, i32 27
  %20 = getelementptr inbounds %struct.url_adapt_state_ex_t, ptr %19, i32 0, i32 14
  %21 = load ptr, ptr %20, align 8
  %22 = icmp ne ptr %21, null
  br i1 %22, label %23, label %32

23:                                               ; preds = %17
  %24 = load ptr, ptr %2, align 8
  %25 = getelementptr inbounds %struct._php_basic_globals, ptr %24, i32 0, i32 27
  %26 = getelementptr inbounds %struct.url_adapt_state_ex_t, ptr %25, i32 0, i32 14
  %27 = load ptr, ptr %26, align 8
  call void @zend_hash_destroy(ptr noundef %27)
  %28 = load ptr, ptr %2, align 8
  %29 = getelementptr inbounds %struct._php_basic_globals, ptr %28, i32 0, i32 27
  %30 = getelementptr inbounds %struct.url_adapt_state_ex_t, ptr %29, i32 0, i32 14
  %31 = load ptr, ptr %30, align 8
  call void @free(ptr noundef %31) #12
  br label %32

32:                                               ; preds = %23, %17
  %33 = load ptr, ptr %2, align 8
  %34 = getelementptr inbounds %struct._php_basic_globals, ptr %33, i32 0, i32 26
  call void @zend_hash_destroy(ptr noundef %34)
  %35 = load ptr, ptr %2, align 8
  %36 = getelementptr inbounds %struct._php_basic_globals, ptr %35, i32 0, i32 28
  call void @zend_hash_destroy(ptr noundef %36)
  ret void
}

; Function Attrs: nounwind uwtable
define hidden i32 @zm_shutdown_basic(i32 noundef %0, i32 noundef %1) #0 {
  %3 = alloca i32, align 4
  %4 = alloca i32, align 4
  store i32 %0, ptr %3, align 4
  store i32 %1, ptr %4, align 4
  call void @basic_globals_dtor(ptr noundef @basic_globals)
  %5 = call i32 @php_unregister_url_stream_wrapper(ptr noundef @.str.3)
  %6 = call i32 @php_unregister_url_stream_wrapper(ptr noundef @.str.7)
  %7 = call i32 @php_unregister_url_stream_wrapper(ptr noundef @.str.8)
  %8 = load i32, ptr %3, align 4
  %9 = load i32, ptr %4, align 4
  %10 = call i32 @zm_shutdown_browscap(i32 noundef %8, i32 noundef %9)
  %11 = load i32, ptr %3, align 4
  %12 = load i32, ptr %4, align 4
  %13 = call i32 @zm_shutdown_array(i32 noundef %11, i32 noundef %12)
  %14 = load i32, ptr %3, align 4
  %15 = load i32, ptr %4, align 4
  %16 = call i32 @zm_shutdown_assert(i32 noundef %14, i32 noundef %15)
  %17 = load i32, ptr %3, align 4
  %18 = load i32, ptr %4, align 4
  %19 = call i32 @zm_shutdown_url_scanner_ex(i32 noundef %17, i32 noundef %18)
  %20 = load i32, ptr %3, align 4
  %21 = load i32, ptr %4, align 4
  %22 = call i32 @zm_shutdown_file(i32 noundef %20, i32 noundef %21)
  %23 = load i32, ptr %3, align 4
  %24 = load i32, ptr %4, align 4
  %25 = call i32 @zm_shutdown_standard_filters(i32 noundef %23, i32 noundef %24)
  %26 = load i32, ptr %3, align 4
  %27 = load i32, ptr %4, align 4
  %28 = call i32 @zm_shutdown_crypt(i32 noundef %26, i32 noundef %27)
  %29 = load i32, ptr %3, align 4
  %30 = load i32, ptr %4, align 4
  %31 = call i32 @zm_shutdown_password(i32 noundef %29, i32 noundef %30)
  ret i32 0
}