; Function Attrs: nounwind uwtable
define hidden noundef i32 @zm_shutdown_basic(i32 noundef %0, i32 noundef %1) #0 {
  %3 = load ptr, ptr getelementptr inbounds (%struct._php_basic_globals, ptr @basic_globals, i64 0, i32 25, i32 14), align 8
  %.not.i = icmp eq ptr %3, null
  br i1 %.not.i, label %6, label %4

4:                                                ; preds = %2
  tail call void @zend_hash_destroy(ptr noundef nonnull %3) #18
  %5 = load ptr, ptr getelementptr inbounds (%struct._php_basic_globals, ptr @basic_globals, i64 0, i32 25, i32 14), align 8
  tail call void @free(ptr noundef %5) #18
  br label %6

6:                                                ; preds = %4, %2
  %7 = load ptr, ptr getelementptr inbounds (%struct._php_basic_globals, ptr @basic_globals, i64 0, i32 27, i32 14), align 8
  %.not9.i = icmp eq ptr %7, null
  br i1 %.not9.i, label %basic_globals_dtor.exit, label %8

8:                                                ; preds = %6
  tail call void @zend_hash_destroy(ptr noundef nonnull %7) #18
  %9 = load ptr, ptr getelementptr inbounds (%struct._php_basic_globals, ptr @basic_globals, i64 0, i32 27, i32 14), align 8
  tail call void @free(ptr noundef %9) #18
  br label %basic_globals_dtor.exit

basic_globals_dtor.exit:                          ; preds = %6, %8
  tail call void @zend_hash_destroy(ptr noundef nonnull getelementptr inbounds (%struct._php_basic_globals, ptr @basic_globals, i64 0, i32 26)) #18
  tail call void @zend_hash_destroy(ptr noundef nonnull getelementptr inbounds (%struct._php_basic_globals, ptr @basic_globals, i64 0, i32 28)) #18
  %10 = tail call i32 @php_unregister_url_stream_wrapper(ptr noundef nonnull @.str.3) #18
  %11 = tail call i32 @php_unregister_url_stream_wrapper(ptr noundef nonnull @.str.7) #18
  %12 = tail call i32 @php_unregister_url_stream_wrapper(ptr noundef nonnull @.str.8) #18
  %13 = tail call i32 @zm_shutdown_browscap(i32 noundef %0, i32 noundef %1) #18
  %14 = tail call i32 @zm_shutdown_array(i32 noundef %0, i32 noundef %1) #18
  %15 = tail call i32 @zm_shutdown_assert(i32 noundef %0, i32 noundef %1) #18
  %16 = tail call i32 @zm_shutdown_url_scanner_ex(i32 noundef %0, i32 noundef %1) #18
  %17 = tail call i32 @zm_shutdown_file(i32 noundef %0, i32 noundef %1) #18
  %18 = tail call i32 @zm_shutdown_standard_filters(i32 noundef %0, i32 noundef %1) #18
  %19 = tail call i32 @zm_shutdown_crypt(i32 noundef %0, i32 noundef %1) #18
  %20 = tail call i32 @zm_shutdown_password(i32 noundef %0, i32 noundef %1) #18
  ret i32 0
}